; Function Attrs: mustprogress nofree norecurse nosync nounwind memory(readwrite, inaccessiblemem: none) uwtable
define hidden void @_ZN3sat8use_list5eraseERNS_6clauseENS_7literalE(ptr nocapture noundef nonnull readonly align 8 dereferenceable(8) %this, ptr noundef nonnull readonly align 4 dereferenceable(20) %c, i32 %l.coerce) local_unnamed_addr #5 align 2 {
entry:
  %m_size.i = getelementptr inbounds i8, ptr %c, i64 4
  %0 = load i32, ptr %m_size.i, align 4
  %idx.ext.i = zext i32 %0 to i64
  %add.ptr.i.idx = shl nuw nsw i64 %idx.ext.i, 2
  %1 = getelementptr i8, ptr %c, i64 %add.ptr.i.idx
  %add.ptr.i.ptr = getelementptr i8, ptr %1, i64 20
  %cmp.not8 = icmp eq i32 %0, 0
  br i1 %cmp.not8, label %for.end, label %for.body.lr.ph

for.body.lr.ph:                                   ; preds = %entry
  %m_lits.i.ptr = getelementptr inbounds i8, ptr %c, i64 20
  %m_learned.i.i = getelementptr inbounds i8, ptr %c, i64 16
  br label %for.body

for.body:                                         ; preds = %for.body.lr.ph, %for.inc
  %__begin1.09 = phi ptr [ %m_lits.i.ptr, %for.body.lr.ph ], [ %incdec.ptr, %for.inc ]
  %2 = load i32, ptr %__begin1.09, align 4
  %cmp.i.not = icmp eq i32 %2, %l.coerce
  br i1 %cmp.i.not, label %for.inc, label %if.then

if.then:                                          ; preds = %for.body
  %3 = load ptr, ptr %this, align 8
  %idxprom.i = zext i32 %2 to i64
  %arrayidx.i = getelementptr inbounds %"class.sat::clause_use_list", ptr %3, i64 %idxprom.i
  %m_size.i6 = getelementptr inbounds i8, ptr %arrayidx.i, i64 8
  %4 = load i32, ptr %m_size.i6, align 8
  %dec.i = add i32 %4, -1
  store i32 %dec.i, ptr %m_size.i6, align 8
  %bf.load.i.i = load i32, ptr %m_learned.i.i, align 4
  %5 = and i32 %bf.load.i.i, 4
  %tobool.i.not.i = icmp eq i32 %5, 0
  br i1 %tobool.i.not.i, label %for.inc, label %if.then.i

if.then.i:                                        ; preds = %if.then
  %m_num_redundant.i = getelementptr inbounds i8, ptr %arrayidx.i, i64 12
  %6 = load i32, ptr %m_num_redundant.i, align 4
  %dec2.i = add i32 %6, -1
  store i32 %dec2.i, ptr %m_num_redundant.i, align 4
  br label %for.inc

for.inc:                                          ; preds = %if.then.i, %if.then, %for.body
  %incdec.ptr = getelementptr inbounds i8, ptr %__begin1.09, i64 4
  %cmp.not = icmp eq ptr %incdec.ptr, %add.ptr.i.ptr
  br i1 %cmp.not, label %for.end, label %for.body

for.end:                                          ; preds = %for.inc, %entry
  ret void
}